target datalayout = "e-m:e-p270:32:32-p271:32:32-p272:64:64-i64:64-i128:128-f80:128-n8:16:32:64-S128"
target triple = "x86_64-pc-linux-gnu"

@.str.116 = private unnamed_addr constant [48 x i8] c"%s cleans and analyzes a PostgreSQL database.\0A\0A\00", align 1
@.str.117 = private unnamed_addr constant [8 x i8] c"Usage:\0A\00", align 1
@.str.118 = private unnamed_addr constant [27 x i8] c"  %s [OPTION]... [DBNAME]\0A\00", align 1
@.str.119 = private unnamed_addr constant [11 x i8] c"\0AOptions:\0A\00", align 1
@.str.120 = private unnamed_addr constant [56 x i8] c"  -a, --all                       vacuum all databases\0A\00", align 1
@.str.121 = private unnamed_addr constant [71 x i8] c"      --buffer-usage-limit=SIZE   size of ring buffer used for vacuum\0A\00", align 1
@.str.122 = private unnamed_addr constant [54 x i8] c"  -d, --dbname=DBNAME             database to vacuum\0A\00", align 1
@.str.123 = private unnamed_addr constant [70 x i8] c"      --disable-page-skipping     disable all page-skipping behavior\0A\00", align 1
@.str.124 = private unnamed_addr constant [78 x i8] c"  -e, --echo                      show the commands being sent to the server\0A\00", align 1
@.str.125 = private unnamed_addr constant [53 x i8] c"  -f, --full                      do full vacuuming\0A\00", align 1
@.str.126 = private unnamed_addr constant [70 x i8] c"  -F, --freeze                    freeze row transaction information\0A\00", align 1
@.str.127 = private unnamed_addr constant [89 x i8] c"      --force-index-cleanup       always remove index entries that point to dead tuples\0A\00", align 1
@.str.128 = private unnamed_addr constant [82 x i8] c"  -j, --jobs=NUM                  use this many concurrent connections to vacuum\0A\00", align 1
@.str.129 = private unnamed_addr constant [80 x i8] c"      --min-mxid-age=MXID_AGE     minimum multixact ID age of tables to vacuum\0A\00", align 1
@.str.130 = private unnamed_addr constant [82 x i8] c"      --min-xid-age=XID_AGE       minimum transaction ID age of tables to vacuum\0A\00", align 1
@.str.131 = private unnamed_addr constant [88 x i8] c"      --no-index-cleanup          don't remove index entries that point to dead tuples\0A\00", align 1
@.str.132 = private unnamed_addr constant [58 x i8] c"      --no-process-main           skip the main relation\0A\00", align 1
@.str.133 = private unnamed_addr constant [92 x i8] c"      --no-process-toast          skip the TOAST table associated with the table to vacuum\0A\00", align 1
@.str.134 = private unnamed_addr constant [86 x i8] c"      --no-truncate               don't truncate empty pages at the end of the table\0A\00", align 1
@.str.135 = private unnamed_addr constant [81 x i8] c"  -n, --schema=SCHEMA             vacuum tables in the specified schema(s) only\0A\00", align 1
@.str.136 = private unnamed_addr constant [83 x i8] c"  -N, --exclude-schema=SCHEMA     do not vacuum tables in the specified schema(s)\0A\00", align 1
@.str.137 = private unnamed_addr constant [93 x i8] c"  -P, --parallel=PARALLEL_WORKERS use this many background workers for vacuum, if available\0A\00", align 1
@.str.138 = private unnamed_addr constant [60 x i8] c"  -q, --quiet                     don't write any messages\0A\00", align 1
@.str.139 = private unnamed_addr constant [84 x i8] c"      --skip-locked               skip relations that cannot be immediately locked\0A\00", align 1
@.str.140 = private unnamed_addr constant [65 x i8] c"  -t, --table='TABLE[(COLUMNS)]'  vacuum specific table(s) only\0A\00", align 1
@.str.141 = private unnamed_addr constant [57 x i8] c"  -v, --verbose                   write a lot of output\0A\00", align 1
@.str.142 = private unnamed_addr constant [73 x i8] c"  -V, --version                   output version information, then exit\0A\00", align 1
@.str.143 = private unnamed_addr constant [63 x i8] c"  -z, --analyze                   update optimizer statistics\0A\00", align 1
@.str.144 = private unnamed_addr constant [79 x i8] c"  -Z, --analyze-only              only update optimizer statistics; no vacuum\0A\00", align 1
@.str.145 = private unnamed_addr constant [152 x i8] c"      --analyze-in-stages         only update optimizer statistics, in multiple\0A                                  stages for faster results; no vacuum\0A\00", align 1
@.str.146 = private unnamed_addr constant [61 x i8] c"  -?, --help                      show this help, then exit\0A\00", align 1
@.str.147 = private unnamed_addr constant [22 x i8] c"\0AConnection options:\0A\00", align 1
@.str.148 = private unnamed_addr constant [70 x i8] c"  -h, --host=HOSTNAME       database server host or socket directory\0A\00", align 1
@.str.149 = private unnamed_addr constant [50 x i8] c"  -p, --port=PORT           database server port\0A\00", align 1
@.str.150 = private unnamed_addr constant [53 x i8] c"  -U, --username=USERNAME   user name to connect as\0A\00", align 1
@.str.151 = private unnamed_addr constant [55 x i8] c"  -w, --no-password         never prompt for password\0A\00", align 1
@.str.152 = private unnamed_addr constant [51 x i8] c"  -W, --password            force password prompt\0A\00", align 1
@.str.153 = private unnamed_addr constant [60 x i8] c"  --maintenance-db=DBNAME   alternate maintenance database\0A\00", align 1
@.str.154 = private unnamed_addr constant [62 x i8] c"\0ARead the description of the SQL command VACUUM for details.\0A\00", align 1
@.str.155 = private unnamed_addr constant [23 x i8] c"\0AReport bugs to <%s>.\0A\00", align 1
@.str.156 = private unnamed_addr constant [32 x i8] c"pgsql-bugs@lists.postgresql.org\00", align 1
@.str.157 = private unnamed_addr constant [20 x i8] c"%s home page: <%s>\0A\00", align 1
@.str.158 = private unnamed_addr constant [11 x i8] c"PostgreSQL\00", align 1
@.str.159 = private unnamed_addr constant [28 x i8] c"https://www.postgresql.org/\00", align 1

; Function Attrs: nounwind uwtable
define internal void @help(ptr noundef %0) #0 {
  %2 = alloca ptr, align 8
  store ptr %0, ptr %2, align 8
  %3 = load ptr, ptr %2, align 8
  %4 = call i32 (ptr, ...) @pg_printf(ptr noundef @.str.116, ptr noundef %3)
  %5 = call i32 (ptr, ...) @pg_printf(ptr noundef @.str.117)
  %6 = load ptr, ptr %2, align 8
  %7 = call i32 (ptr, ...) @pg_printf(ptr noundef @.str.118, ptr noundef %6)
  %8 = call i32 (ptr, ...) @pg_printf(ptr noundef @.str.119)
  %9 = call i32 (ptr, ...) @pg_printf(ptr noundef @.str.120)
  %10 = call i32 (ptr, ...) @pg_printf(ptr noundef @.str.121)
  %11 = call i32 (ptr, ...) @pg_printf(ptr noundef @.str.122)
  %12 = call i32 (ptr, ...) @pg_printf(ptr noundef @.str.123)
  %13 = call i32 (ptr, ...) @pg_printf(ptr noundef @.str.124)
  %14 = call i32 (ptr, ...) @pg_printf(ptr noundef @.str.125)
  %15 = call i32 (ptr, ...) @pg_printf(ptr noundef @.str.126)
  %16 = call i32 (ptr, ...) @pg_printf(ptr noundef @.str.127)
  %17 = call i32 (ptr, ...) @pg_printf(ptr noundef @.str.128)
  %18 = call i32 (ptr, ...) @pg_printf(ptr noundef @.str.129)
  %19 = call i32 (ptr, ...) @pg_printf(ptr noundef @.str.130)
  %20 = call i32 (ptr, ...) @pg_printf(ptr noundef @.str.131)
  %21 = call i32 (ptr, ...) @pg_printf(ptr noundef @.str.132)
  %22 = call i32 (ptr, ...) @pg_printf(ptr noundef @.str.133)
  %23 = call i32 (ptr, ...) @pg_printf(ptr noundef @.str.134)
  %24 = call i32 (ptr, ...) @pg_printf(ptr noundef @.str.135)
  %25 = call i32 (ptr, ...) @pg_printf(ptr noundef @.str.136)
  %26 = call i32 (ptr, ...) @pg_printf(ptr noundef @.str.137)
  %27 = call i32 (ptr, ...) @pg_printf(ptr noundef @.str.138)
  %28 = call i32 (ptr, ...) @pg_printf(ptr noundef @.str.139)
  %29 = call i32 (ptr, ...) @pg_printf(ptr noundef @.str.140)
  %30 = call i32 (ptr, ...) @pg_printf(ptr noundef @.str.141)
  %31 = call i32 (ptr, ...) @pg_printf(ptr noundef @.str.142)
  %32 = call i32 (ptr, ...) @pg_printf(ptr noundef @.str.143)
  %33 = call i32 (ptr, ...) @pg_printf(ptr noundef @.str.144)
  %34 = call i32 (ptr, ...) @pg_printf(ptr noundef @.str.145)
  %35 = call i32 (ptr, ...) @pg_printf(ptr noundef @.str.146)
  %36 = call i32 (ptr, ...) @pg_printf(ptr noundef @.str.147)
  %37 = call i32 (ptr, ...) @pg_printf(ptr noundef @.str.148)
  %38 = call i32 (ptr, ...) @pg_printf(ptr noundef @.str.149)
  %39 = call i32 (ptr, ...) @pg_printf(ptr noundef @.str.150)
  %40 = call i32 (ptr, ...) @pg_printf(ptr noundef @.str.151)
  %41 = call i32 (ptr, ...) @pg_printf(ptr noundef @.str.152)
  %42 = call i32 (ptr, ...) @pg_printf(ptr noundef @.str.153)
  %43 = call i32 (ptr, ...) @pg_printf(ptr noundef @.str.154)
  %44 = call i32 (ptr, ...) @pg_printf(ptr noundef @.str.155, ptr noundef @.str.156)
  %45 = call i32 (ptr, ...) @pg_printf(ptr noundef @.str.157, ptr noundef @.str.158, ptr noundef @.str.159)
  ret void
}