; Function Attrs: nounwind uwtable
define internal void @help(ptr noundef %0) #4 {
  %2 = tail call i32 (ptr, ...) @pg_printf(ptr noundef nonnull @.str.116, ptr noundef %0) #10
  %3 = tail call i32 (ptr, ...) @pg_printf(ptr noundef nonnull @.str.117) #10
  %4 = tail call i32 (ptr, ...) @pg_printf(ptr noundef nonnull @.str.118, ptr noundef %0) #10
  %5 = tail call i32 (ptr, ...) @pg_printf(ptr noundef nonnull @.str.119) #10
  %6 = tail call i32 (ptr, ...) @pg_printf(ptr noundef nonnull @.str.120) #10
  %7 = tail call i32 (ptr, ...) @pg_printf(ptr noundef nonnull @.str.121) #10
  %8 = tail call i32 (ptr, ...) @pg_printf(ptr noundef nonnull @.str.122) #10
  %9 = tail call i32 (ptr, ...) @pg_printf(ptr noundef nonnull @.str.123) #10
  %10 = tail call i32 (ptr, ...) @pg_printf(ptr noundef nonnull @.str.124) #10
  %11 = tail call i32 (ptr, ...) @pg_printf(ptr noundef nonnull @.str.125) #10
  %12 = tail call i32 (ptr, ...) @pg_printf(ptr noundef nonnull @.str.126) #10
  %13 = tail call i32 (ptr, ...) @pg_printf(ptr noundef nonnull @.str.127) #10
  %14 = tail call i32 (ptr, ...) @pg_printf(ptr noundef nonnull @.str.128) #10
  %15 = tail call i32 (ptr, ...) @pg_printf(ptr noundef nonnull @.str.129) #10
  %16 = tail call i32 (ptr, ...) @pg_printf(ptr noundef nonnull @.str.130) #10
  %17 = tail call i32 (ptr, ...) @pg_printf(ptr noundef nonnull @.str.131) #10
  %18 = tail call i32 (ptr, ...) @pg_printf(ptr noundef nonnull @.str.132) #10
  %19 = tail call i32 (ptr, ...) @pg_printf(ptr noundef nonnull @.str.133) #10
  %20 = tail call i32 (ptr, ...) @pg_printf(ptr noundef nonnull @.str.134) #10
  %21 = tail call i32 (ptr, ...) @pg_printf(ptr noundef nonnull @.str.135) #10
  %22 = tail call i32 (ptr, ...) @pg_printf(ptr noundef nonnull @.str.136) #10
  %23 = tail call i32 (ptr, ...) @pg_printf(ptr noundef nonnull @.str.137) #10
  %24 = tail call i32 (ptr, ...) @pg_printf(ptr noundef nonnull @.str.138) #10
  %25 = tail call i32 (ptr, ...) @pg_printf(ptr noundef nonnull @.str.139) #10
  %26 = tail call i32 (ptr, ...) @pg_printf(ptr noundef nonnull @.str.140) #10
  %27 = tail call i32 (ptr, ...) @pg_printf(ptr noundef nonnull @.str.141) #10
  %28 = tail call i32 (ptr, ...) @pg_printf(ptr noundef nonnull @.str.142) #10
  %29 = tail call i32 (ptr, ...) @pg_printf(ptr noundef nonnull @.str.143) #10
  %30 = tail call i32 (ptr, ...) @pg_printf(ptr noundef nonnull @.str.144) #10
  %31 = tail call i32 (ptr, ...) @pg_printf(ptr noundef nonnull @.str.145) #10
  %32 = tail call i32 (ptr, ...) @pg_printf(ptr noundef nonnull @.str.146) #10
  %33 = tail call i32 (ptr, ...) @pg_printf(ptr noundef nonnull @.str.147) #10
  %34 = tail call i32 (ptr, ...) @pg_printf(ptr noundef nonnull @.str.148) #10
  %35 = tail call i32 (ptr, ...) @pg_printf(ptr noundef nonnull @.str.149) #10
  %36 = tail call i32 (ptr, ...) @pg_printf(ptr noundef nonnull @.str.150) #10
  %37 = tail call i32 (ptr, ...) @pg_printf(ptr noundef nonnull @.str.151) #10
  %38 = tail call i32 (ptr, ...) @pg_printf(ptr noundef nonnull @.str.152) #10
  %39 = tail call i32 (ptr, ...) @pg_printf(ptr noundef nonnull @.str.153) #10
  %40 = tail call i32 (ptr, ...) @pg_printf(ptr noundef nonnull @.str.154) #10
  %41 = tail call i32 (ptr, ...) @pg_printf(ptr noundef nonnull @.str.155, ptr noundef nonnull @.str.156) #10
  %42 = tail call i32 (ptr, ...) @pg_printf(ptr noundef nonnull @.str.157, ptr noundef nonnull @.str.158, ptr noundef nonnull @.str.159) #10
  ret void
}